; Function Attrs: nounwind sspstrong uwtable
define internal fastcc void @iseq_iterate_children(ptr noundef %0, ptr noundef readonly captures(none) %1, ptr noundef %2) unnamed_addr #0 {
  %4 = tail call ptr @rb_iseq_original_iseq(ptr noundef %0) #20
  %5 = getelementptr inbounds nuw i8, ptr %0, i64 16
  %6 = load ptr, ptr %5, align 8, !tbaa !7
  %7 = tail call i64 @rb_ident_hash_new() #20
  %8 = tail call i64 @rb_obj_hide(i64 noundef %7) #20
  %9 = getelementptr inbounds nuw i8, ptr %6, i64 152
  %10 = load ptr, ptr %9, align 8, !tbaa !81
  %.not = icmp eq ptr %10, null
  br i1 %.not, label %.loopexit, label %.preheader

.preheader:                                       ; preds = %3
  %11 = load i32, ptr %10, align 1, !tbaa !136
  %.not53 = icmp eq i32 %11, 0
  br i1 %.not53, label %.loopexit, label %.lr.ph

.lr.ph:                                           ; preds = %.preheader, %22
  %indvars.iv = phi i64 [ %indvars.iv.next, %22 ], [ 0, %.preheader ]
  %12 = phi ptr [ %23, %22 ], [ %10, %.preheader ]
  %.idx = shl nuw nsw i64 %indvars.iv, 5
  %13 = getelementptr i8, ptr %12, i64 12
  %14 = getelementptr i8, ptr %13, i64 %.idx
  %15 = load ptr, ptr %14, align 8, !tbaa !137
  %.not49 = icmp eq ptr %15, null
  br i1 %.not49, label %22, label %16

16:                                               ; preds = %.lr.ph
  %17 = ptrtoint ptr %15 to i64
  %18 = tail call i64 @rb_hash_aref(i64 noundef %8, i64 noundef %17) #20
  %19 = icmp eq i64 %18, 4
  br i1 %19, label %20, label %22

20:                                               ; preds = %16
  %21 = tail call i64 @rb_hash_aset(i64 noundef %8, i64 noundef %17, i64 noundef 20) #20
  tail call void %1(ptr noundef nonnull %15, ptr noundef %2) #20, !callees !383
  br label %22

22:                                               ; preds = %16, %20, %.lr.ph
  %indvars.iv.next = add nuw nsw i64 %indvars.iv, 1
  %23 = load ptr, ptr %9, align 8, !tbaa !81
  %24 = load i32, ptr %23, align 1, !tbaa !136
  %25 = zext i32 %24 to i64
  %26 = icmp samesign ult i64 %indvars.iv.next, %25
  br i1 %26, label %.lr.ph, label %.loopexit, !llvm.loop !351

.loopexit:                                        ; preds = %22, %.preheader, %3
  %27 = getelementptr inbounds nuw i8, ptr %6, i64 4
  %28 = load i32, ptr %27, align 4, !tbaa !83
  %.not54 = icmp eq i32 %28, 0
  br i1 %.not54, label %RHASH_SIZE.exit, label %.lr.ph52

.lr.ph52:                                         ; preds = %.loopexit, %56
  %.151 = phi i32 [ %58, %56 ], [ 0, %.loopexit ]
  %29 = zext i32 %.151 to i64
  %30 = getelementptr i64, ptr %4, i64 %29
  %31 = load i64, ptr %30, align 8, !tbaa !42
  %32 = getelementptr [220 x i8], ptr @rb_vm_insn_len_info, i64 0, i64 %31
  %33 = load i8, ptr %32, align 1, !tbaa !84
  %34 = getelementptr [220 x i16], ptr @rb_vm_insn_op_offset, i64 0, i64 %31
  %35 = load i16, ptr %34, align 2, !tbaa !260
  %36 = zext i16 %35 to i64
  %37 = getelementptr [489 x i8], ptr @rb_vm_insn_op_base, i64 0, i64 %36
  %38 = add nuw i32 %.151, 1
  br label %39

39:                                               ; preds = %54, %.lr.ph52
  %.0 = phi i32 [ 0, %.lr.ph52 ], [ %55, %54 ]
  %40 = sext i32 %.0 to i64
  %41 = getelementptr i8, ptr %37, i64 %40
  %42 = load i8, ptr %41, align 1, !tbaa !84
  switch i8 %42, label %54 [
    i8 0, label %56
    i8 83, label %43
  ]

43:                                               ; preds = %39
  %44 = add i32 %38, %.0
  %45 = zext i32 %44 to i64
  %46 = getelementptr i64, ptr %4, i64 %45
  %47 = load i64, ptr %46, align 8, !tbaa !42
  %48 = inttoptr i64 %47 to ptr
  %.not48 = icmp eq i64 %47, 0
  br i1 %.not48, label %54, label %49

49:                                               ; preds = %43
  %50 = tail call i64 @rb_hash_aref(i64 noundef %8, i64 noundef %47) #20
  %51 = icmp eq i64 %50, 4
  br i1 %51, label %52, label %54

52:                                               ; preds = %49
  %53 = tail call i64 @rb_hash_aset(i64 noundef %8, i64 noundef %47, i64 noundef 20) #20
  tail call void %1(ptr noundef nonnull %48, ptr noundef %2) #20, !callees !383
  br label %54

54:                                               ; preds = %39, %49, %52, %43
  %55 = add i32 %.0, 1
  br label %39, !llvm.loop !352

56:                                               ; preds = %39
  %57 = zext i8 %33 to i32
  %58 = add i32 %.151, %57
  %59 = load i32, ptr %27, align 4, !tbaa !83
  %60 = icmp ult i32 %58, %59
  br i1 %60, label %.lr.ph52, label %RHASH_SIZE.exit, !llvm.loop !353

RHASH_SIZE.exit:                                  ; preds = %56, %.loopexit
  ret void
}